; Function Attrs: nounwind uwtable
define i32 @exr_write_tile_chunk(ptr noundef %0, i32 noundef %1, i32 noundef %2, i32 noundef %3, i32 noundef %4, i32 noundef %5, ptr noundef %6, i64 noundef %7) local_unnamed_addr #0 {
  %.not = icmp eq ptr %0, null
  br i1 %.not, label %38, label %9

9:                                                ; preds = %8
  %10 = getelementptr inbounds nuw i8, ptr %0, i64 504
  %11 = tail call i32 @pthread_mutex_lock(ptr noundef nonnull %10) #8
  %12 = icmp slt i32 %1, 0
  br i1 %12, label %16, label %13

13:                                               ; preds = %9
  %14 = getelementptr inbounds nuw i8, ptr %0, i64 196
  %15 = load i32, ptr %14, align 4, !tbaa !22
  %.not28 = icmp slt i32 %1, %15
  br i1 %.not28, label %21, label %16

16:                                               ; preds = %13, %9
  %17 = tail call i32 @pthread_mutex_unlock(ptr noundef nonnull %10) #8
  %18 = getelementptr inbounds nuw i8, ptr %0, i64 72
  %19 = load ptr, ptr %18, align 8, !tbaa !23
  %20 = tail call i32 (ptr, i32, ptr, ...) %19(ptr noundef nonnull %0, i32 noundef 4, ptr noundef nonnull @.str, i32 noundef %1) #8
  br label %38

21:                                               ; preds = %13
  %22 = getelementptr inbounds nuw i8, ptr %0, i64 472
  %23 = load ptr, ptr %22, align 8, !tbaa !25
  %24 = zext nneg i32 %1 to i64
  %25 = getelementptr inbounds nuw ptr, ptr %23, i64 %24
  %26 = load ptr, ptr %25, align 8, !tbaa !26
  %27 = getelementptr inbounds nuw i8, ptr %26, i64 4
  %28 = load i32, ptr %27, align 4, !tbaa !44
  %29 = icmp eq i32 %28, 3
  br i1 %29, label %30, label %35

30:                                               ; preds = %21
  %31 = tail call i32 @pthread_mutex_unlock(ptr noundef nonnull %10) #8
  %32 = getelementptr inbounds nuw i8, ptr %0, i64 56
  %33 = load ptr, ptr %32, align 8, !tbaa !24
  %34 = tail call i32 %33(ptr noundef nonnull %0, i32 noundef 28) #8
  br label %38

35:                                               ; preds = %21
  %36 = tail call fastcc i32 @write_tile_chunk(ptr noundef %0, i32 noundef %1, ptr noundef nonnull %26, i32 noundef %2, i32 noundef %3, i32 noundef %4, i32 noundef %5, ptr noundef %6, i64 noundef %7, i64 noundef 0, ptr noundef null, i64 noundef 0)
  %37 = tail call i32 @pthread_mutex_unlock(ptr noundef nonnull %10) #8
  br label %38

38:                                               ; preds = %8, %35, %30, %16
  %.0 = phi i32 [ %20, %16 ], [ %34, %30 ], [ %36, %35 ], [ 2, %8 ]
  ret i32 %.0
}